target datalayout = "e-m:e-p270:32:32-p271:32:32-p272:64:64-i64:64-i128:128-f80:128-n8:16:32:64-S128"
target triple = "x86_64-pc-linux-gnu"

@hf_sua_destination_address_routing_indicator = internal global i32 0, align 4
@hf_sua_destination_address_reserved_bits = internal global i32 0, align 4
@hf_sua_destination_address_gt_bit = internal global i32 0, align 4
@hf_sua_destination_address_pc_bit = internal global i32 0, align 4
@hf_sua_destination_address_ssn_bit = internal global i32 0, align 4
@ett_sua_destination_address_indicator = internal global i32 0, align 4
@sua_ri = internal global i16 0, align 2
@.str.458 = private unnamed_addr constant [18 x i8] c"Address Indicator\00", align 1

; Function Attrs: null_pointer_is_valid sspstrong uwtable
define internal void @dissect_destination_address_parameter(ptr noundef %0, ptr noundef %1, ptr noundef %2, ptr noundef %3) #0 {
  %5 = alloca ptr, align 8
  %6 = alloca ptr, align 8
  %7 = alloca ptr, align 8
  %8 = alloca ptr, align 8
  %9 = alloca ptr, align 8
  %10 = alloca ptr, align 8
  store ptr %0, ptr %5, align 8
  store ptr %1, ptr %6, align 8
  store ptr %2, ptr %7, align 8
  store ptr %3, ptr %8, align 8
  call void @llvm.lifetime.start.p0(i64 8, ptr %9) #6
  call void @llvm.lifetime.start.p0(i64 8, ptr %10) #6
  %11 = load ptr, ptr %5, align 8
  %12 = call zeroext i16 @tvb_get_ntohs(ptr noundef %11, i32 noundef 4)
  store i16 %12, ptr @sua_ri, align 2
  %13 = load ptr, ptr %7, align 8
  %14 = icmp ne ptr %13, null
  br i1 %14, label %15, label %40

15:                                               ; preds = %4
  %16 = load ptr, ptr %7, align 8
  %17 = load i32, ptr @hf_sua_destination_address_routing_indicator, align 4
  %18 = load ptr, ptr %5, align 8
  %19 = call ptr @proto_tree_add_item(ptr noundef %16, i32 noundef %17, ptr noundef %18, i32 noundef 4, i32 noundef 2, i32 noundef 0)
  %20 = load ptr, ptr %7, align 8
  %21 = load ptr, ptr %5, align 8
  %22 = load i32, ptr @ett_sua_destination_address_indicator, align 4
  %23 = call ptr @proto_tree_add_subtree(ptr noundef %20, ptr noundef %21, i32 noundef 6, i32 noundef 2, i32 noundef %22, ptr noundef null, ptr noundef @.str.458)
  store ptr %23, ptr %9, align 8
  %24 = load ptr, ptr %9, align 8
  %25 = load i32, ptr @hf_sua_destination_address_reserved_bits, align 4
  %26 = load ptr, ptr %5, align 8
  %27 = call ptr @proto_tree_add_item(ptr noundef %24, i32 noundef %25, ptr noundef %26, i32 noundef 6, i32 noundef 2, i32 noundef 0)
  %28 = load ptr, ptr %9, align 8
  %29 = load i32, ptr @hf_sua_destination_address_gt_bit, align 4
  %30 = load ptr, ptr %5, align 8
  %31 = call ptr @proto_tree_add_item(ptr noundef %28, i32 noundef %29, ptr noundef %30, i32 noundef 6, i32 noundef 2, i32 noundef 0)
  %32 = load ptr, ptr %9, align 8
  %33 = load i32, ptr @hf_sua_destination_address_pc_bit, align 4
  %34 = load ptr, ptr %5, align 8
  %35 = call ptr @proto_tree_add_item(ptr noundef %32, i32 noundef %33, ptr noundef %34, i32 noundef 6, i32 noundef 2, i32 noundef 0)
  %36 = load ptr, ptr %9, align 8
  %37 = load i32, ptr @hf_sua_destination_address_ssn_bit, align 4
  %38 = load ptr, ptr %5, align 8
  %39 = call ptr @proto_tree_add_item(ptr noundef %36, i32 noundef %37, ptr noundef %38, i32 noundef 6, i32 noundef 2, i32 noundef 0)
  br label %40

40:                                               ; preds = %15, %4
  %41 = load ptr, ptr %5, align 8
  %42 = call ptr @tvb_new_subset_remaining(ptr noundef %41, i32 noundef 8)
  store ptr %42, ptr %10, align 8
  %43 = load ptr, ptr %10, align 8
  %44 = load ptr, ptr %6, align 8
  %45 = load ptr, ptr %7, align 8
  %46 = load ptr, ptr %8, align 8
  call void @dissect_parameters(ptr noundef %43, ptr noundef %44, ptr noundef %45, ptr noundef null, ptr noundef null, ptr noundef %46)
  call void @llvm.lifetime.end.p0(i64 8, ptr %10) #6
  call void @llvm.lifetime.end.p0(i64 8, ptr %9) #6
  ret void
}